; Function Attrs: nounwind uwtable
define i32 @av_thread_message_queue_nb_elems(ptr noundef %0) local_unnamed_addr #0 {
  %2 = getelementptr inbounds nuw i8, ptr %0, i64 8
  %3 = tail call i32 @pthread_mutex_lock(ptr noundef nonnull %2) #5
  %4 = load ptr, ptr %0, align 8, !tbaa !4
  %5 = tail call i64 @av_fifo_can_read(ptr noundef %4) #5
  %6 = trunc i64 %5 to i32
  %7 = tail call i32 @pthread_mutex_unlock(ptr noundef nonnull %2) #5
  ret i32 %6
}